; Function Attrs: mustprogress nounwind uwtable
define noundef zeroext i1 @_ZN4base12SharedMemory5UnmapEv(ptr noundef nonnull align 8 captures(none) dereferenceable(40) %0) local_unnamed_addr #2 align 2 {
  %2 = getelementptr inbounds nuw i8, ptr %0, i64 16
  %3 = load ptr, ptr %2, align 8, !tbaa !23
  %4 = icmp ne ptr %3, null
  br i1 %4, label %5, label %9

5:                                                ; preds = %1
  %6 = getelementptr inbounds nuw i8, ptr %0, i64 8
  %7 = load i64, ptr %6, align 8, !tbaa !24
  %8 = tail call i32 @munmap(ptr noundef nonnull %3, i64 noundef %7) #22
  tail call void @llvm.memset.p0.i64(ptr noundef nonnull align 8 dereferenceable(16) %6, i8 0, i64 16, i1 false)
  br label %9

9:                                                ; preds = %1, %5
  ret i1 %4
}